target datalayout = "e-m:e-p270:32:32-p271:32:32-p272:64:64-i64:64-i128:128-f80:128-n8:16:32:64-S128"
target triple = "x86_64-pc-linux-gnu"

@jpeg_natural_order = constant [80 x i32] [i32 0, i32 1, i32 8, i32 16, i32 9, i32 2, i32 3, i32 10, i32 17, i32 24, i32 32, i32 25, i32 18, i32 11, i32 4, i32 5, i32 12, i32 19, i32 26, i32 33, i32 40, i32 48, i32 41, i32 34, i32 27, i32 20, i32 13, i32 6, i32 7, i32 14, i32 21, i32 28, i32 35, i32 42, i32 49, i32 56, i32 57, i32 50, i32 43, i32 36, i32 29, i32 22, i32 15, i32 23, i32 30, i32 37, i32 44, i32 51, i32 58, i32 59, i32 52, i32 45, i32 38, i32 31, i32 39, i32 46, i32 53, i32 60, i32 61, i32 54, i32 47, i32 55, i32 62, i32 63, i32 63, i32 63, i32 63, i32 63, i32 63, i32 63, i32 63, i32 63, i32 63, i32 63, i32 63, i32 63, i32 63, i32 63, i32 63, i32 63], align 16

; Function Attrs: nounwind uwtable
define i64 @jdiv_round_up(i64 noundef %0, i64 noundef %1) #0 {
  %3 = alloca i64, align 8
  %4 = alloca i64, align 8
  store i64 %0, ptr %3, align 8, !tbaa !3
  store i64 %1, ptr %4, align 8, !tbaa !3
  %5 = load i64, ptr %3, align 8, !tbaa !3
  %6 = load i64, ptr %4, align 8, !tbaa !3
  %7 = add nsw i64 %5, %6
  %8 = sub nsw i64 %7, 1
  %9 = load i64, ptr %4, align 8, !tbaa !3
  %10 = sdiv i64 %8, %9
  ret i64 %10
}

; Function Attrs: nounwind uwtable
define i64 @jround_up(i64 noundef %0, i64 noundef %1) #0 {
  %3 = alloca i64, align 8
  %4 = alloca i64, align 8
  store i64 %0, ptr %3, align 8, !tbaa !3
  store i64 %1, ptr %4, align 8, !tbaa !3
  %5 = load i64, ptr %4, align 8, !tbaa !3
  %6 = sub nsw i64 %5, 1
  %7 = load i64, ptr %3, align 8, !tbaa !3
  %8 = add nsw i64 %7, %6
  store i64 %8, ptr %3, align 8, !tbaa !3
  %9 = load i64, ptr %3, align 8, !tbaa !3
  %10 = load i64, ptr %3, align 8, !tbaa !3
  %11 = load i64, ptr %4, align 8, !tbaa !3
  %12 = srem i64 %10, %11
  %13 = sub nsw i64 %9, %12
  ret i64 %13
}

; Function Attrs: nounwind uwtable
define void @jcopy_sample_rows(ptr noundef %0, i32 noundef %1, ptr noundef %2, i32 noundef %3, i32 noundef %4, i32 noundef %5) #0 {
  %7 = alloca ptr, align 8
  %8 = alloca i32, align 4
  %9 = alloca ptr, align 8
  %10 = alloca i32, align 4
  %11 = alloca i32, align 4
  %12 = alloca i32, align 4
  %13 = alloca ptr, align 8
  %14 = alloca ptr, align 8
  %15 = alloca i64, align 8
  %16 = alloca i32, align 4
  store ptr %0, ptr %7, align 8, !tbaa !7
  store i32 %1, ptr %8, align 4, !tbaa !10
  store ptr %2, ptr %9, align 8, !tbaa !7
  store i32 %3, ptr %10, align 4, !tbaa !10
  store i32 %4, ptr %11, align 4, !tbaa !10
  store i32 %5, ptr %12, align 4, !tbaa !10
  call void @llvm.lifetime.start.p0(i64 8, ptr %13) #4
  call void @llvm.lifetime.start.p0(i64 8, ptr %14) #4
  call void @llvm.lifetime.start.p0(i64 8, ptr %15) #4
  %17 = load i32, ptr %12, align 4, !tbaa !10
  %18 = zext i32 %17 to i64
  %19 = mul i64 %18, 1
  store i64 %19, ptr %15, align 8, !tbaa !3
  call void @llvm.lifetime.start.p0(i64 4, ptr %16) #4
  %20 = load i32, ptr %8, align 4, !tbaa !10
  %21 = load ptr, ptr %7, align 8, !tbaa !7
  %22 = sext i32 %20 to i64
  %23 = getelementptr inbounds ptr, ptr %21, i64 %22
  store ptr %23, ptr %7, align 8, !tbaa !7
  %24 = load i32, ptr %10, align 4, !tbaa !10
  %25 = load ptr, ptr %9, align 8, !tbaa !7
  %26 = sext i32 %24 to i64
  %27 = getelementptr inbounds ptr, ptr %25, i64 %26
  store ptr %27, ptr %9, align 8, !tbaa !7
  %28 = load i32, ptr %11, align 4, !tbaa !10
  store i32 %28, ptr %16, align 4, !tbaa !10
  br label %29

29:                                               ; preds = %42, %6
  %30 = load i32, ptr %16, align 4, !tbaa !10
  %31 = icmp sgt i32 %30, 0
  br i1 %31, label %32, label %45

32:                                               ; preds = %29
  %33 = load ptr, ptr %7, align 8, !tbaa !7
  %34 = getelementptr inbounds nuw ptr, ptr %33, i32 1
  store ptr %34, ptr %7, align 8, !tbaa !7
  %35 = load ptr, ptr %33, align 8, !tbaa !12
  store ptr %35, ptr %13, align 8, !tbaa !12
  %36 = load ptr, ptr %9, align 8, !tbaa !7
  %37 = getelementptr inbounds nuw ptr, ptr %36, i32 1
  store ptr %37, ptr %9, align 8, !tbaa !7
  %38 = load ptr, ptr %36, align 8, !tbaa !12
  store ptr %38, ptr %14, align 8, !tbaa !12
  %39 = load ptr, ptr %14, align 8, !tbaa !12
  %40 = load ptr, ptr %13, align 8, !tbaa !12
  %41 = load i64, ptr %15, align 8, !tbaa !3
  call void @llvm.memcpy.p0.p0.i64(ptr align 1 %39, ptr align 1 %40, i64 %41, i1 false)
  br label %42

42:                                               ; preds = %32
  %43 = load i32, ptr %16, align 4, !tbaa !10
  %44 = add nsw i32 %43, -1
  store i32 %44, ptr %16, align 4, !tbaa !10
  br label %29, !llvm.loop !14

45:                                               ; preds = %29
  call void @llvm.lifetime.end.p0(i64 4, ptr %16) #4
  call void @llvm.lifetime.end.p0(i64 8, ptr %15) #4
  call void @llvm.lifetime.end.p0(i64 8, ptr %14) #4
  call void @llvm.lifetime.end.p0(i64 8, ptr %13) #4
  ret void
}

; Function Attrs: nocallback nofree nosync nounwind willreturn memory(argmem: readwrite)
declare void @llvm.lifetime.start.p0(i64 immarg, ptr captures(none)) #1

; Function Attrs: nocallback nofree nounwind willreturn memory(argmem: readwrite)
declare void @llvm.memcpy.p0.p0.i64(ptr noalias writeonly captures(none), ptr noalias readonly captures(none), i64, i1 immarg) #2

; Function Attrs: nocallback nofree nosync nounwind willreturn memory(argmem: readwrite)
declare void @llvm.lifetime.end.p0(i64 immarg, ptr captures(none)) #1

; Function Attrs: nounwind uwtable
define void @jcopy_block_row(ptr noundef %0, ptr noundef %1, i32 noundef %2) #0 {
  %4 = alloca ptr, align 8
  %5 = alloca ptr, align 8
  %6 = alloca i32, align 4
  store ptr %0, ptr %4, align 8, !tbaa !16
  store ptr %1, ptr %5, align 8, !tbaa !16
  store i32 %2, ptr %6, align 4, !tbaa !10
  %7 = load ptr, ptr %5, align 8, !tbaa !16
  %8 = load ptr, ptr %4, align 8, !tbaa !16
  %9 = load i32, ptr %6, align 4, !tbaa !10
  %10 = zext i32 %9 to i64
  %11 = mul i64 %10, 128
  call void @llvm.memcpy.p0.p0.i64(ptr align 2 %7, ptr align 2 %8, i64 %11, i1 false)
  ret void
}

; Function Attrs: nounwind uwtable
define void @jzero_far(ptr noundef %0, i64 noundef %1) #0 {
  %3 = alloca ptr, align 8
  %4 = alloca i64, align 8
  store ptr %0, ptr %3, align 8, !tbaa !18
  store i64 %1, ptr %4, align 8, !tbaa !3
  %5 = load ptr, ptr %3, align 8, !tbaa !18
  %6 = load i64, ptr %4, align 8, !tbaa !3
  call void @llvm.memset.p0.i64(ptr align 1 %5, i8 0, i64 %6, i1 false)
  ret void
}

; Function Attrs: nocallback nofree nounwind willreturn memory(argmem: write)
declare void @llvm.memset.p0.i64(ptr writeonly captures(none), i8, i64, i1 immarg) #3


!llvm.module.flags = !{!0, !1, !2}

!0 = !{i32 1, !"wchar_size", i32 4}
!1 = !{i32 8, !"PIC Level", i32 2}
!2 = !{i32 7, !"uwtable", i32 2}
!3 = !{!4, !4, i64 0}
!4 = !{!"long", !5, i64 0}
!5 = !{!"omnipotent char", !6, i64 0}
!6 = !{!"Simple C/C++ TBAA"}
!7 = !{!8, !8, i64 0}
!8 = !{!"p2 omnipotent char", !9, i64 0}
!9 = !{!"any pointer", !5, i64 0}
!10 = !{!11, !11, i64 0}
!11 = !{!"int", !5, i64 0}
!12 = !{!13, !13, i64 0}
!13 = !{!"p1 omnipotent char", !9, i64 0}
!14 = distinct !{!14, !15}
!15 = !{!"llvm.loop.mustprogress"}
!16 = !{!17, !17, i64 0}
!17 = !{!"p1 short", !9, i64 0}
!18 = !{!9, !9, i64 0}
