; ModuleID = 'bench/libjpeg-turbo/original/jutils.ll'
source_filename = "bench/libjpeg-turbo/original/jutils.ll"
target datalayout = "e-m:e-p270:32:32-p271:32:32-p272:64:64-i64:64-i128:128-f80:128-n8:16:32:64-S128"
target triple = "x86_64-pc-linux-gnu"

@jpeg_natural_order = local_unnamed_addr constant [80 x i32] [i32 0, i32 1, i32 8, i32 16, i32 9, i32 2, i32 3, i32 10, i32 17, i32 24, i32 32, i32 25, i32 18, i32 11, i32 4, i32 5, i32 12, i32 19, i32 26, i32 33, i32 40, i32 48, i32 41, i32 34, i32 27, i32 20, i32 13, i32 6, i32 7, i32 14, i32 21, i32 28, i32 35, i32 42, i32 49, i32 56, i32 57, i32 50, i32 43, i32 36, i32 29, i32 22, i32 15, i32 23, i32 30, i32 37, i32 44, i32 51, i32 58, i32 59, i32 52, i32 45, i32 38, i32 31, i32 39, i32 46, i32 53, i32 60, i32 61, i32 54, i32 47, i32 55, i32 62, i32 63, i32 63, i32 63, i32 63, i32 63, i32 63, i32 63, i32 63, i32 63, i32 63, i32 63, i32 63, i32 63, i32 63, i32 63, i32 63, i32 63], align 16

; Function Attrs: mustprogress nofree norecurse nosync nounwind willreturn memory(none) uwtable
define noundef i64 @jdiv_round_up(i64 noundef %0, i64 noundef %1) local_unnamed_addr #0 {
  %3 = add i64 %0, -1
  %4 = add i64 %3, %1
  %5 = sdiv i64 %4, %1
  ret i64 %5
}

; Function Attrs: mustprogress nofree norecurse nosync nounwind willreturn memory(none) uwtable
define i64 @jround_up(i64 noundef %0, i64 noundef %1) local_unnamed_addr #0 {
  %3 = add i64 %0, -1
  %4 = add i64 %3, %1
  %5 = srem i64 %4, %1
  %6 = sub nsw i64 %4, %5
  ret i64 %6
}

; Function Attrs: nofree norecurse nosync nounwind memory(readwrite, inaccessiblemem: none) uwtable
define void @jcopy_sample_rows(ptr noundef readonly captures(none) %0, i32 noundef %1, ptr noundef readonly captures(none) %2, i32 noundef %3, i32 noundef %4, i32 noundef %5) local_unnamed_addr #1 {
  %7 = zext i32 %5 to i64
  %8 = icmp sgt i32 %4, 0
  br i1 %8, label %.lr.ph.preheader, label %._crit_edge

.lr.ph.preheader:                                 ; preds = %6
  %9 = sext i32 %3 to i64
  %10 = getelementptr inbounds ptr, ptr %2, i64 %9
  %11 = sext i32 %1 to i64
  %12 = getelementptr inbounds ptr, ptr %0, i64 %11
  br label %.lr.ph

.lr.ph:                                           ; preds = %.lr.ph.preheader, %.lr.ph
  %.016 = phi i32 [ %17, %.lr.ph ], [ %4, %.lr.ph.preheader ]
  %.01215 = phi ptr [ %13, %.lr.ph ], [ %12, %.lr.ph.preheader ]
  %.01314 = phi ptr [ %15, %.lr.ph ], [ %10, %.lr.ph.preheader ]
  %13 = getelementptr inbounds nuw i8, ptr %.01215, i64 8
  %14 = load ptr, ptr %.01215, align 8, !tbaa !3
  %15 = getelementptr inbounds nuw i8, ptr %.01314, i64 8
  %16 = load ptr, ptr %.01314, align 8, !tbaa !3
  tail call void @llvm.memcpy.p0.p0.i64(ptr align 1 %16, ptr align 1 %14, i64 %7, i1 false)
  %17 = add nsw i32 %.016, -1
  %18 = icmp samesign ugt i32 %.016, 1
  br i1 %18, label %.lr.ph, label %._crit_edge, !llvm.loop !8

._crit_edge:                                      ; preds = %.lr.ph, %6
  ret void
}

; Function Attrs: mustprogress nocallback nofree nounwind willreturn memory(argmem: readwrite)
declare void @llvm.memcpy.p0.p0.i64(ptr noalias writeonly captures(none), ptr noalias readonly captures(none), i64, i1 immarg) #2

; Function Attrs: mustprogress nofree norecurse nosync nounwind willreturn memory(argmem: readwrite) uwtable
define void @jcopy_block_row(ptr noundef readonly captures(none) %0, ptr noundef writeonly captures(none) %1, i32 noundef %2) local_unnamed_addr #3 {
  %4 = zext i32 %2 to i64
  %5 = shl nuw nsw i64 %4, 7
  tail call void @llvm.memcpy.p0.p0.i64(ptr align 2 %1, ptr align 2 %0, i64 %5, i1 false)
  ret void
}

; Function Attrs: mustprogress nofree norecurse nosync nounwind willreturn memory(argmem: write) uwtable
define void @jzero_far(ptr noundef writeonly captures(none) %0, i64 noundef %1) local_unnamed_addr #4 {
  tail call void @llvm.memset.p0.i64(ptr align 1 %0, i8 0, i64 %1, i1 false)
  ret void
}

; Function Attrs: mustprogress nocallback nofree nounwind willreturn memory(argmem: write)
declare void @llvm.memset.p0.i64(ptr writeonly captures(none), i8, i64, i1 immarg) #5


!llvm.module.flags = !{!0, !1, !2}

!0 = !{i32 1, !"wchar_size", i32 4}
!1 = !{i32 8, !"PIC Level", i32 2}
!2 = !{i32 7, !"uwtable", i32 2}
!3 = !{!4, !4, i64 0}
!4 = !{!"p1 omnipotent char", !5, i64 0}
!5 = !{!"any pointer", !6, i64 0}
!6 = !{!"omnipotent char", !7, i64 0}
!7 = !{!"Simple C/C++ TBAA"}
!8 = distinct !{!8, !9}
!9 = !{!"llvm.loop.mustprogress"}
